target datalayout = "e-m:e-p270:32:32-p271:32:32-p272:64:64-i64:64-i128:128-f80:128-n8:16:32:64-S128"
target triple = "x86_64-pc-linux-gnu"

%struct.newhope_poly_st = type { [1024 x i16] }
%struct.sha256_state_st = type { [8 x i32], i32, i32, [64 x i8], i32, i32 }

; Function Attrs: nounwind uwtable
define internal void @decode_rec(ptr noundef %0, ptr noundef %1) #0 {
  %3 = alloca ptr, align 8
  %4 = alloca ptr, align 8
  %5 = alloca i32, align 4
  store ptr %0, ptr %3, align 8, !tbaa !11
  store ptr %1, ptr %4, align 8, !tbaa !6
  call void @llvm.lifetime.start.p0(i64 4, ptr %5) #6
  store i32 0, ptr %5, align 4, !tbaa !15
  br label %6

6:                                                ; preds = %72, %2
  %7 = load i32, ptr %5, align 4, !tbaa !15
  %8 = icmp slt i32 %7, 256
  br i1 %8, label %9, label %75

9:                                                ; preds = %6
  %10 = load ptr, ptr %3, align 8, !tbaa !11
  %11 = load i32, ptr %5, align 4, !tbaa !15
  %12 = sext i32 %11 to i64
  %13 = getelementptr inbounds i8, ptr %10, i64 %12
  %14 = load i8, ptr %13, align 1, !tbaa !19
  %15 = zext i8 %14 to i32
  %16 = and i32 %15, 3
  %17 = trunc i32 %16 to i16
  %18 = load ptr, ptr %4, align 8, !tbaa !6
  %19 = getelementptr inbounds nuw %struct.newhope_poly_st, ptr %18, i32 0, i32 0
  %20 = load i32, ptr %5, align 4, !tbaa !15
  %21 = mul nsw i32 4, %20
  %22 = add nsw i32 %21, 0
  %23 = sext i32 %22 to i64
  %24 = getelementptr inbounds [1024 x i16], ptr %19, i64 0, i64 %23
  store i16 %17, ptr %24, align 2, !tbaa !17
  %25 = load ptr, ptr %3, align 8, !tbaa !11
  %26 = load i32, ptr %5, align 4, !tbaa !15
  %27 = sext i32 %26 to i64
  %28 = getelementptr inbounds i8, ptr %25, i64 %27
  %29 = load i8, ptr %28, align 1, !tbaa !19
  %30 = zext i8 %29 to i32
  %31 = ashr i32 %30, 2
  %32 = and i32 %31, 3
  %33 = trunc i32 %32 to i16
  %34 = load ptr, ptr %4, align 8, !tbaa !6
  %35 = getelementptr inbounds nuw %struct.newhope_poly_st, ptr %34, i32 0, i32 0
  %36 = load i32, ptr %5, align 4, !tbaa !15
  %37 = mul nsw i32 4, %36
  %38 = add nsw i32 %37, 1
  %39 = sext i32 %38 to i64
  %40 = getelementptr inbounds [1024 x i16], ptr %35, i64 0, i64 %39
  store i16 %33, ptr %40, align 2, !tbaa !17
  %41 = load ptr, ptr %3, align 8, !tbaa !11
  %42 = load i32, ptr %5, align 4, !tbaa !15
  %43 = sext i32 %42 to i64
  %44 = getelementptr inbounds i8, ptr %41, i64 %43
  %45 = load i8, ptr %44, align 1, !tbaa !19
  %46 = zext i8 %45 to i32
  %47 = ashr i32 %46, 4
  %48 = and i32 %47, 3
  %49 = trunc i32 %48 to i16
  %50 = load ptr, ptr %4, align 8, !tbaa !6
  %51 = getelementptr inbounds nuw %struct.newhope_poly_st, ptr %50, i32 0, i32 0
  %52 = load i32, ptr %5, align 4, !tbaa !15
  %53 = mul nsw i32 4, %52
  %54 = add nsw i32 %53, 2
  %55 = sext i32 %54 to i64
  %56 = getelementptr inbounds [1024 x i16], ptr %51, i64 0, i64 %55
  store i16 %49, ptr %56, align 2, !tbaa !17
  %57 = load ptr, ptr %3, align 8, !tbaa !11
  %58 = load i32, ptr %5, align 4, !tbaa !15
  %59 = sext i32 %58 to i64
  %60 = getelementptr inbounds i8, ptr %57, i64 %59
  %61 = load i8, ptr %60, align 1, !tbaa !19
  %62 = zext i8 %61 to i32
  %63 = ashr i32 %62, 6
  %64 = trunc i32 %63 to i16
  %65 = load ptr, ptr %4, align 8, !tbaa !6
  %66 = getelementptr inbounds nuw %struct.newhope_poly_st, ptr %65, i32 0, i32 0
  %67 = load i32, ptr %5, align 4, !tbaa !15
  %68 = mul nsw i32 4, %67
  %69 = add nsw i32 %68, 3
  %70 = sext i32 %69 to i64
  %71 = getelementptr inbounds [1024 x i16], ptr %66, i64 0, i64 %70
  store i16 %64, ptr %71, align 2, !tbaa !17
  br label %72

72:                                               ; preds = %9
  %73 = load i32, ptr %5, align 4, !tbaa !15
  %74 = add nsw i32 %73, 1
  store i32 %74, ptr %5, align 4, !tbaa !15
  br label %6, !llvm.loop !22

75:                                               ; preds = %6
  call void @llvm.lifetime.end.p0(i64 4, ptr %5) #6
  ret void
}

; Function Attrs: nounwind uwtable
define hidden i32 @NEWHOPE_server_compute_key(ptr noundef %0, ptr noundef %1, ptr noundef %2, i64 noundef %3) #0 {
  %5 = alloca i32, align 4
  %6 = alloca ptr, align 8
  %7 = alloca ptr, align 8
  %8 = alloca ptr, align 8
  %9 = alloca i64, align 8
  %10 = alloca %struct.newhope_poly_st, align 32
  %11 = alloca %struct.newhope_poly_st, align 32
  %12 = alloca %struct.newhope_poly_st, align 32
  %13 = alloca ptr, align 8
  %14 = alloca [32 x i8], align 16
  %15 = alloca %struct.sha256_state_st, align 4
  %16 = alloca i32, align 4
  store ptr %0, ptr %6, align 8, !tbaa !11
  store ptr %1, ptr %7, align 8, !tbaa !6
  store ptr %2, ptr %8, align 8, !tbaa !11
  store i64 %3, ptr %9, align 8, !tbaa !13
  %17 = load i64, ptr %9, align 8, !tbaa !13
  %18 = icmp ne i64 %17, 2048
  br i1 %18, label %19, label %20

19:                                               ; preds = %4
  store i32 0, ptr %5, align 4
  br label %40

20:                                               ; preds = %4
  call void @llvm.lifetime.start.p0(i64 2048, ptr %10) #6
  %21 = load ptr, ptr %8, align 8, !tbaa !11
  call void @newhope_poly_frombytes(ptr noundef %10, ptr noundef %21)
  call void @llvm.lifetime.start.p0(i64 2048, ptr %11) #6
  %22 = load ptr, ptr %7, align 8, !tbaa !6
  call void @newhope_poly_pointwise(ptr noundef %11, ptr noundef %22, ptr noundef %10)
  call void @newhope_poly_invntt(ptr noundef %11)
  call void @llvm.lifetime.start.p0(i64 2048, ptr %12) #6
  call void @llvm.lifetime.start.p0(i64 8, ptr %13) #6
  %23 = load ptr, ptr %8, align 8, !tbaa !11
  %24 = getelementptr inbounds i8, ptr %23, i64 1792
  store ptr %24, ptr %13, align 8, !tbaa !11
  %25 = load ptr, ptr %13, align 8, !tbaa !11
  call void @decode_rec(ptr noundef %25, ptr noundef %12)
  call void @llvm.lifetime.start.p0(i64 32, ptr %14) #6
  %26 = getelementptr inbounds [32 x i8], ptr %14, i64 0, i64 0
  call void @newhope_reconcile(ptr noundef %26, ptr noundef %11, ptr noundef %12)
  call void @llvm.lifetime.start.p0(i64 112, ptr %15) #6
  %27 = call i32 @SHA256_Init(ptr noundef %15)
  %28 = icmp ne i32 %27, 0
  br i1 %28, label %29, label %37

29:                                               ; preds = %20
  %30 = getelementptr inbounds [32 x i8], ptr %14, i64 0, i64 0
  %31 = call i32 @SHA256_Update(ptr noundef %15, ptr noundef %30, i64 noundef 32)
  %32 = icmp ne i32 %31, 0
  br i1 %32, label %33, label %37

33:                                               ; preds = %29
  %34 = load ptr, ptr %6, align 8, !tbaa !11
  %35 = call i32 @SHA256_Final(ptr noundef %34, ptr noundef %15)
  %36 = icmp ne i32 %35, 0
  br i1 %36, label %38, label %37

37:                                               ; preds = %33, %29, %20
  store i32 0, ptr %5, align 4
  store i32 1, ptr %16, align 4
  br label %39

38:                                               ; preds = %33
  store i32 1, ptr %5, align 4
  store i32 1, ptr %16, align 4
  br label %39

39:                                               ; preds = %38, %37
  call void @llvm.lifetime.end.p0(i64 112, ptr %15) #6
  call void @llvm.lifetime.end.p0(i64 32, ptr %14) #6
  call void @llvm.lifetime.end.p0(i64 8, ptr %13) #6
  call void @llvm.lifetime.end.p0(i64 2048, ptr %12) #6
  call void @llvm.lifetime.end.p0(i64 2048, ptr %11) #6
  call void @llvm.lifetime.end.p0(i64 2048, ptr %10) #6
  br label %40

40:                                               ; preds = %39, %19
  %41 = load i32, ptr %5, align 4
  ret i32 %41
}