; Function Attrs: nounwind uwtable
define hidden range(i32 0, 2) i32 @NEWHOPE_server_compute_key(ptr noundef %0, ptr noundef %1, ptr noundef %2, i64 noundef %3) local_unnamed_addr #4 {
  %5 = alloca %struct.newhope_poly_st, align 32
  %6 = alloca %struct.newhope_poly_st, align 32
  %7 = alloca %struct.newhope_poly_st, align 32
  %8 = alloca [32 x i8], align 16
  %9 = alloca %struct.sha256_state_st, align 4
  %.not = icmp eq i64 %3, 2048
  br i1 %.not, label %10, label %39

10:                                               ; preds = %4
  call void @llvm.lifetime.start.p0(i64 2048, ptr nonnull %5) #8
  call void @newhope_poly_frombytes(ptr noundef nonnull %5, ptr noundef %2) #8
  call void @llvm.lifetime.start.p0(i64 2048, ptr nonnull %6) #8
  call void @newhope_poly_pointwise(ptr noundef nonnull %6, ptr noundef %1, ptr noundef nonnull %5) #8
  call void @newhope_poly_invntt(ptr noundef nonnull %6) #8
  call void @llvm.lifetime.start.p0(i64 2048, ptr nonnull %7) #8
  %11 = getelementptr inbounds nuw i8, ptr %2, i64 1792
  br label %12

12:                                               ; preds = %12, %10
  %indvars.iv.i = phi i64 [ 0, %10 ], [ %indvars.iv.next.i, %12 ]
  %13 = getelementptr inbounds nuw i8, ptr %11, i64 %indvars.iv.i
  %14 = load i8, ptr %13, align 1, !tbaa !10
  %15 = and i8 %14, 3
  %16 = zext nneg i8 %15 to i16
  %17 = shl nuw nsw i64 %indvars.iv.i, 2
  %18 = getelementptr inbounds nuw [1024 x i16], ptr %7, i64 0, i64 %17
  store i16 %16, ptr %18, align 8, !tbaa !6
  %19 = lshr i8 %14, 2
  %20 = and i8 %19, 3
  %21 = zext nneg i8 %20 to i16
  %22 = or disjoint i64 %17, 1
  %23 = getelementptr inbounds nuw [1024 x i16], ptr %7, i64 0, i64 %22
  store i16 %21, ptr %23, align 2, !tbaa !6
  %24 = lshr i8 %14, 4
  %25 = and i8 %24, 3
  %26 = zext nneg i8 %25 to i16
  %27 = or disjoint i64 %17, 2
  %28 = getelementptr inbounds nuw [1024 x i16], ptr %7, i64 0, i64 %27
  store i16 %26, ptr %28, align 4, !tbaa !6
  %29 = lshr i8 %14, 6
  %30 = zext nneg i8 %29 to i16
  %31 = or disjoint i64 %17, 3
  %32 = getelementptr inbounds nuw [1024 x i16], ptr %7, i64 0, i64 %31
  store i16 %30, ptr %32, align 2, !tbaa !6
  %indvars.iv.next.i = add nuw nsw i64 %indvars.iv.i, 1
  %exitcond.not.i = icmp eq i64 %indvars.iv.next.i, 256
  br i1 %exitcond.not.i, label %decode_rec.exit, label %12, !llvm.loop !13

decode_rec.exit:                                  ; preds = %12
  call void @llvm.lifetime.start.p0(i64 32, ptr nonnull %8) #8
  call void @newhope_reconcile(ptr noundef nonnull %8, ptr noundef nonnull %6, ptr noundef nonnull %7) #8
  call void @llvm.lifetime.start.p0(i64 112, ptr nonnull %9) #8
  %33 = call i32 @SHA256_Init(ptr noundef nonnull %9) #8
  %.not6 = icmp eq i32 %33, 0
  br i1 %.not6, label %38, label %34

34:                                               ; preds = %decode_rec.exit
  %35 = call i32 @SHA256_Update(ptr noundef nonnull %9, ptr noundef nonnull %8, i64 noundef 32) #8
  %.not7 = icmp eq i32 %35, 0
  br i1 %.not7, label %38, label %36

36:                                               ; preds = %34
  %37 = call i32 @SHA256_Final(ptr noundef %0, ptr noundef nonnull %9) #8
  %.not8 = icmp ne i32 %37, 0
  %spec.select = zext i1 %.not8 to i32
  br label %38

38:                                               ; preds = %36, %decode_rec.exit, %34
  %.1 = phi i32 [ 0, %34 ], [ 0, %decode_rec.exit ], [ %spec.select, %36 ]
  call void @llvm.lifetime.end.p0(i64 112, ptr nonnull %9) #8
  call void @llvm.lifetime.end.p0(i64 32, ptr nonnull %8) #8
  call void @llvm.lifetime.end.p0(i64 2048, ptr nonnull %7) #8
  call void @llvm.lifetime.end.p0(i64 2048, ptr nonnull %6) #8
  call void @llvm.lifetime.end.p0(i64 2048, ptr nonnull %5) #8
  br label %39

39:                                               ; preds = %4, %38
  %.0 = phi i32 [ %.1, %38 ], [ 0, %4 ]
  ret i32 %.0
}